target datalayout = "e-m:e-p270:32:32-p271:32:32-p272:64:64-i64:64-i128:128-f80:128-n8:16:32:64-S128"
target triple = "x86_64-pc-linux-gnu"

%struct.ARKodeMemRec = type { ptr, double, ptr, i32, i32, double, double, ptr, i32, double, ptr, i32, i32, ptr, ptr, i32, ptr, ptr, i32, ptr, ptr, ptr, ptr, ptr, ptr, ptr, ptr, ptr, ptr, ptr, ptr, ptr, ptr, ptr, i32, ptr, ptr, i32, ptr, i32, ptr, ptr, ptr, ptr, ptr, ptr, ptr, ptr, ptr, ptr, ptr, ptr, ptr, ptr, ptr, ptr, ptr, ptr, ptr, ptr, ptr, ptr, ptr, ptr, ptr, ptr, i32, ptr, ptr, ptr, ptr, ptr, ptr, ptr, i32, ptr, ptr, ptr, i32, ptr, ptr, ptr, ptr, ptr, ptr, ptr, i32, i32, i32, i32, double, double, double, double, double, double, double, double, double, double, i32, ptr, i64, i32, i32, i32, i32, i64, i64, i32, i64, i64, i64, i64, i64, i64, i64, double, double, double, double, double, i32, double, double, i32, i32, i32, i32, i32, i32, i32, i32, ptr, i32, ptr, ptr, ptr, ptr, i32, i32, i32 }

@.str = private unnamed_addr constant [115 x i8] c"generated/home/dtcxzyw/WorkSpace/Projects/compilers/llvm-opt-benchmark/bench/sundials/sundials/src/arkode/arkode.c\00", align 1
@.str.135 = private unnamed_addr constant [28 x i8] c"ARKodeMem structure is NULL\00", align 1
@.str.136 = private unnamed_addr constant [34 x i8] c"ARKodeInterpMem structure is NULL\00", align 1
@__func__.arkPredict_VariableOrder = private unnamed_addr constant [25 x i8] c"arkPredict_VariableOrder\00", align 1

; Function Attrs: nounwind uwtable
define i32 @arkPredict_VariableOrder(ptr noundef %0, double noundef %1, ptr noundef %2) #0 {
  %4 = alloca i32, align 4
  %5 = alloca ptr, align 8
  %6 = alloca double, align 8
  %7 = alloca ptr, align 8
  %8 = alloca i32, align 4
  %9 = alloca double, align 8
  %10 = alloca double, align 8
  %11 = alloca i32, align 4
  store ptr %0, ptr %5, align 8, !tbaa !11
  store double %1, ptr %6, align 8, !tbaa !9
  store ptr %2, ptr %7, align 8, !tbaa !7
  call void @llvm.lifetime.start.p0(i64 4, ptr %8) #10
  call void @llvm.lifetime.start.p0(i64 8, ptr %9) #10
  store double 5.000000e-01, ptr %9, align 8, !tbaa !9
  call void @llvm.lifetime.start.p0(i64 8, ptr %10) #10
  store double 7.500000e-01, ptr %10, align 8, !tbaa !9
  %12 = load ptr, ptr %5, align 8, !tbaa !11
  %13 = icmp eq ptr %12, null
  br i1 %13, label %14, label %15

14:                                               ; preds = %3
  call void (ptr, i32, i32, ptr, ptr, ptr, ...) @arkProcessError(ptr noundef null, i32 noundef -21, i32 noundef 2997, ptr noundef @__func__.arkPredict_VariableOrder, ptr noundef @.str, ptr noundef @.str.135)
  store i32 -21, ptr %4, align 4
  store i32 1, ptr %11, align 4
  br label %43

15:                                               ; preds = %3
  %16 = load ptr, ptr %5, align 8, !tbaa !11
  %17 = getelementptr inbounds nuw %struct.ARKodeMemRec, ptr %16, i32 0, i32 85
  %18 = load ptr, ptr %17, align 8, !tbaa !39
  %19 = icmp eq ptr %18, null
  br i1 %19, label %20, label %22

20:                                               ; preds = %15
  %21 = load ptr, ptr %5, align 8, !tbaa !11
  call void (ptr, i32, i32, ptr, ptr, ptr, ...) @arkProcessError(ptr noundef %21, i32 noundef -21, i32 noundef 3003, ptr noundef @__func__.arkPredict_VariableOrder, ptr noundef @.str, ptr noundef @.str.136)
  store i32 -21, ptr %4, align 4
  store i32 1, ptr %11, align 4
  br label %43

22:                                               ; preds = %15
  %23 = load double, ptr %6, align 8, !tbaa !9
  %24 = load double, ptr %9, align 8, !tbaa !9
  %25 = fcmp ole double %23, %24
  br i1 %25, label %26, label %27

26:                                               ; preds = %22
  store i32 3, ptr %8, align 4, !tbaa !38
  br label %34

27:                                               ; preds = %22
  %28 = load double, ptr %6, align 8, !tbaa !9
  %29 = load double, ptr %10, align 8, !tbaa !9
  %30 = fcmp ole double %28, %29
  br i1 %30, label %31, label %32

31:                                               ; preds = %27
  store i32 2, ptr %8, align 4, !tbaa !38
  br label %33

32:                                               ; preds = %27
  store i32 1, ptr %8, align 4, !tbaa !38
  br label %33

33:                                               ; preds = %32, %31
  br label %34

34:                                               ; preds = %33, %26
  %35 = load ptr, ptr %5, align 8, !tbaa !11
  %36 = load ptr, ptr %5, align 8, !tbaa !11
  %37 = getelementptr inbounds nuw %struct.ARKodeMemRec, ptr %36, i32 0, i32 85
  %38 = load ptr, ptr %37, align 8, !tbaa !39
  %39 = load double, ptr %6, align 8, !tbaa !9
  %40 = load i32, ptr %8, align 4, !tbaa !38
  %41 = load ptr, ptr %7, align 8, !tbaa !7
  %42 = call i32 @arkInterpEvaluate(ptr noundef %35, ptr noundef %38, double noundef %39, i32 noundef 0, i32 noundef %40, ptr noundef %41)
  store i32 %42, ptr %4, align 4
  store i32 1, ptr %11, align 4
  br label %43

43:                                               ; preds = %34, %20, %14
  call void @llvm.lifetime.end.p0(i64 8, ptr %10) #10
  call void @llvm.lifetime.end.p0(i64 8, ptr %9) #10
  call void @llvm.lifetime.end.p0(i64 4, ptr %8) #10
  %44 = load i32, ptr %4, align 4
  ret i32 %44
}